; Function Attrs: nounwind uwtable
define ptr @l_Lean_InternalExceptionId_toString(ptr noundef %0) local_unnamed_addr #0 {
  %2 = tail call ptr @l___private_Init_Data_Repr_0__Nat_reprFast(ptr noundef %0) #4
  %3 = load ptr, ptr @l_Lean_InternalExceptionId_toString___closed__1, align 8, !tbaa !11
  %4 = tail call ptr @lean_string_append(ptr noundef %3, ptr noundef %2) #4
  %5 = ptrtoint ptr %2 to i64
  %6 = and i64 %5, 1
  %.not = icmp eq i64 %6, 0
  br i1 %.not, label %7, label %lean_dec.exit

7:                                                ; preds = %1
  %8 = load i32, ptr %2, align 4, !tbaa !5
  %9 = icmp sgt i32 %8, 1
  br i1 %9, label %10, label %12, !prof !10

10:                                               ; preds = %7
  %11 = add nsw i32 %8, -1
  store i32 %11, ptr %2, align 4, !tbaa !5
  br label %lean_dec.exit

12:                                               ; preds = %7
  %.not.i = icmp eq i32 %8, 0
  br i1 %.not.i, label %lean_dec.exit, label %13

13:                                               ; preds = %12
  tail call void @lean_dec_ref_cold(ptr noundef nonnull %2) #4
  br label %lean_dec.exit

lean_dec.exit:                                    ; preds = %13, %12, %10, %1
  %14 = load ptr, ptr @l_Lean_InternalExceptionId_toString___closed__2, align 8, !tbaa !11
  %15 = tail call ptr @lean_string_append(ptr noundef %4, ptr noundef %14) #4
  ret ptr %15
}